target datalayout = "e-m:e-p270:32:32-p271:32:32-p272:64:64-i64:64-i128:128-f80:128-n8:16:32:64-S128"
target triple = "x86_64-pc-linux-gnu"

%struct.mbedtls_psa_mac_operation_t = type { i32, %union.anon }
%union.anon = type { %struct.mbedtls_psa_hmac_operation_t }
%struct.mbedtls_psa_hmac_operation_t = type { i32, %struct.psa_hash_operation_s, [144 x i8] }
%struct.psa_hash_operation_s = type { i32, %union.psa_driver_hash_context_t }
%union.psa_driver_hash_context_t = type { %struct.mbedtls_psa_hash_operation_t }
%struct.mbedtls_psa_hash_operation_t = type { i32, %union.anon.0 }
%union.anon.0 = type { %struct.mbedtls_sha512_context }
%struct.mbedtls_sha512_context = type { [2 x i64], [8 x i64], [128 x i8], i32 }

; Function Attrs: nounwind uwtable
define internal i32 @psa_hmac_finish_internal(ptr noundef %0, ptr noundef %1, i64 noundef %2) #0 {
  %4 = alloca i32, align 4
  %5 = alloca ptr, align 8
  %6 = alloca ptr, align 8
  %7 = alloca i64, align 8
  %8 = alloca [64 x i8], align 16
  %9 = alloca i32, align 4
  %10 = alloca i64, align 8
  %11 = alloca i64, align 8
  %12 = alloca i32, align 4
  %13 = alloca i32, align 4
  store ptr %0, ptr %5, align 8, !tbaa !3
  store ptr %1, ptr %6, align 8, !tbaa !12
  store i64 %2, ptr %7, align 8, !tbaa !14
  call void @llvm.lifetime.start.p0(i64 64, ptr %8) #6
  call void @llvm.lifetime.start.p0(i64 4, ptr %9) #6
  %14 = load ptr, ptr %5, align 8, !tbaa !3
  %15 = getelementptr inbounds nuw %struct.mbedtls_psa_hmac_operation_t, ptr %14, i32 0, i32 0
  %16 = load i32, ptr %15, align 8, !tbaa !22
  store i32 %16, ptr %9, align 4, !tbaa !16
  call void @llvm.lifetime.start.p0(i64 8, ptr %10) #6
  store i64 0, ptr %10, align 8, !tbaa !14
  call void @llvm.lifetime.start.p0(i64 8, ptr %11) #6
  %17 = load i32, ptr %9, align 4, !tbaa !16
  %18 = and i32 %17, 255
  %19 = or i32 33554432, %18
  %20 = icmp eq i32 %19, 33554435
  br i1 %20, label %21, label %22

21:                                               ; preds = %3
  br label %116

22:                                               ; preds = %3
  %23 = load i32, ptr %9, align 4, !tbaa !16
  %24 = and i32 %23, 255
  %25 = or i32 33554432, %24
  %26 = icmp eq i32 %25, 33554436
  br i1 %26, label %27, label %28

27:                                               ; preds = %22
  br label %114

28:                                               ; preds = %22
  %29 = load i32, ptr %9, align 4, !tbaa !16
  %30 = and i32 %29, 255
  %31 = or i32 33554432, %30
  %32 = icmp eq i32 %31, 33554437
  br i1 %32, label %33, label %34

33:                                               ; preds = %28
  br label %112

34:                                               ; preds = %28
  %35 = load i32, ptr %9, align 4, !tbaa !16
  %36 = and i32 %35, 255
  %37 = or i32 33554432, %36
  %38 = icmp eq i32 %37, 33554440
  br i1 %38, label %39, label %40

39:                                               ; preds = %34
  br label %110

40:                                               ; preds = %34
  %41 = load i32, ptr %9, align 4, !tbaa !16
  %42 = and i32 %41, 255
  %43 = or i32 33554432, %42
  %44 = icmp eq i32 %43, 33554441
  br i1 %44, label %45, label %46

45:                                               ; preds = %40
  br label %108

46:                                               ; preds = %40
  %47 = load i32, ptr %9, align 4, !tbaa !16
  %48 = and i32 %47, 255
  %49 = or i32 33554432, %48
  %50 = icmp eq i32 %49, 33554442
  br i1 %50, label %51, label %52

51:                                               ; preds = %46
  br label %106

52:                                               ; preds = %46
  %53 = load i32, ptr %9, align 4, !tbaa !16
  %54 = and i32 %53, 255
  %55 = or i32 33554432, %54
  %56 = icmp eq i32 %55, 33554443
  br i1 %56, label %57, label %58

57:                                               ; preds = %52
  br label %104

58:                                               ; preds = %52
  %59 = load i32, ptr %9, align 4, !tbaa !16
  %60 = and i32 %59, 255
  %61 = or i32 33554432, %60
  %62 = icmp eq i32 %61, 33554444
  br i1 %62, label %63, label %64

63:                                               ; preds = %58
  br label %102

64:                                               ; preds = %58
  %65 = load i32, ptr %9, align 4, !tbaa !16
  %66 = and i32 %65, 255
  %67 = or i32 33554432, %66
  %68 = icmp eq i32 %67, 33554445
  br i1 %68, label %69, label %70

69:                                               ; preds = %64
  br label %100

70:                                               ; preds = %64
  %71 = load i32, ptr %9, align 4, !tbaa !16
  %72 = and i32 %71, 255
  %73 = or i32 33554432, %72
  %74 = icmp eq i32 %73, 33554448
  br i1 %74, label %75, label %76

75:                                               ; preds = %70
  br label %98

76:                                               ; preds = %70
  %77 = load i32, ptr %9, align 4, !tbaa !16
  %78 = and i32 %77, 255
  %79 = or i32 33554432, %78
  %80 = icmp eq i32 %79, 33554449
  br i1 %80, label %81, label %82

81:                                               ; preds = %76
  br label %96

82:                                               ; preds = %76
  %83 = load i32, ptr %9, align 4, !tbaa !16
  %84 = and i32 %83, 255
  %85 = or i32 33554432, %84
  %86 = icmp eq i32 %85, 33554450
  br i1 %86, label %87, label %88

87:                                               ; preds = %82
  br label %94

88:                                               ; preds = %82
  %89 = load i32, ptr %9, align 4, !tbaa !16
  %90 = and i32 %89, 255
  %91 = or i32 33554432, %90
  %92 = icmp eq i32 %91, 33554451
  %93 = select i1 %92, i32 72, i32 0
  br label %94

94:                                               ; preds = %88, %87
  %95 = phi i32 [ 104, %87 ], [ %93, %88 ]
  br label %96

96:                                               ; preds = %94, %81
  %97 = phi i32 [ 136, %81 ], [ %95, %94 ]
  br label %98

98:                                               ; preds = %96, %75
  %99 = phi i32 [ 144, %75 ], [ %97, %96 ]
  br label %100

100:                                              ; preds = %98, %69
  %101 = phi i32 [ 128, %69 ], [ %99, %98 ]
  br label %102

102:                                              ; preds = %100, %63
  %103 = phi i32 [ 128, %63 ], [ %101, %100 ]
  br label %104

104:                                              ; preds = %102, %57
  %105 = phi i32 [ 128, %57 ], [ %103, %102 ]
  br label %106

106:                                              ; preds = %104, %51
  %107 = phi i32 [ 128, %51 ], [ %105, %104 ]
  br label %108

108:                                              ; preds = %106, %45
  %109 = phi i32 [ 64, %45 ], [ %107, %106 ]
  br label %110

110:                                              ; preds = %108, %39
  %111 = phi i32 [ 64, %39 ], [ %109, %108 ]
  br label %112

112:                                              ; preds = %110, %33
  %113 = phi i32 [ 64, %33 ], [ %111, %110 ]
  br label %114

114:                                              ; preds = %112, %27
  %115 = phi i32 [ 64, %27 ], [ %113, %112 ]
  br label %116

116:                                              ; preds = %114, %21
  %117 = phi i32 [ 64, %21 ], [ %115, %114 ]
  %118 = zext i32 %117 to i64
  store i64 %118, ptr %11, align 8, !tbaa !14
  call void @llvm.lifetime.start.p0(i64 4, ptr %12) #6
  %119 = load ptr, ptr %5, align 8, !tbaa !3
  %120 = getelementptr inbounds nuw %struct.mbedtls_psa_hmac_operation_t, ptr %119, i32 0, i32 1
  %121 = getelementptr inbounds [64 x i8], ptr %8, i64 0, i64 0
  %122 = call i32 @psa_hash_finish(ptr noundef %120, ptr noundef %121, i64 noundef 64, ptr noundef %10)
  store i32 %122, ptr %12, align 4, !tbaa !16
  %123 = load i32, ptr %12, align 4, !tbaa !16
  %124 = icmp ne i32 %123, 0
  br i1 %124, label %125, label %127

125:                                              ; preds = %116
  %126 = load i32, ptr %12, align 4, !tbaa !16
  store i32 %126, ptr %4, align 4
  store i32 1, ptr %13, align 4
  br label %171

127:                                              ; preds = %116
  %128 = load ptr, ptr %5, align 8, !tbaa !3
  %129 = getelementptr inbounds nuw %struct.mbedtls_psa_hmac_operation_t, ptr %128, i32 0, i32 1
  %130 = load i32, ptr %9, align 4, !tbaa !16
  %131 = call i32 @psa_hash_setup(ptr noundef %129, i32 noundef %130)
  store i32 %131, ptr %12, align 4, !tbaa !16
  %132 = load i32, ptr %12, align 4, !tbaa !16
  %133 = icmp ne i32 %132, 0
  br i1 %133, label %134, label %135

134:                                              ; preds = %127
  br label %167

135:                                              ; preds = %127
  %136 = load ptr, ptr %5, align 8, !tbaa !3
  %137 = getelementptr inbounds nuw %struct.mbedtls_psa_hmac_operation_t, ptr %136, i32 0, i32 1
  %138 = load ptr, ptr %5, align 8, !tbaa !3
  %139 = getelementptr inbounds nuw %struct.mbedtls_psa_hmac_operation_t, ptr %138, i32 0, i32 2
  %140 = getelementptr inbounds [144 x i8], ptr %139, i64 0, i64 0
  %141 = load i64, ptr %11, align 8, !tbaa !14
  %142 = call i32 @psa_hash_update(ptr noundef %137, ptr noundef %140, i64 noundef %141)
  store i32 %142, ptr %12, align 4, !tbaa !16
  %143 = load i32, ptr %12, align 4, !tbaa !16
  %144 = icmp ne i32 %143, 0
  br i1 %144, label %145, label %146

145:                                              ; preds = %135
  br label %167

146:                                              ; preds = %135
  %147 = load ptr, ptr %5, align 8, !tbaa !3
  %148 = getelementptr inbounds nuw %struct.mbedtls_psa_hmac_operation_t, ptr %147, i32 0, i32 1
  %149 = getelementptr inbounds [64 x i8], ptr %8, i64 0, i64 0
  %150 = load i64, ptr %10, align 8, !tbaa !14
  %151 = call i32 @psa_hash_update(ptr noundef %148, ptr noundef %149, i64 noundef %150)
  store i32 %151, ptr %12, align 4, !tbaa !16
  %152 = load i32, ptr %12, align 4, !tbaa !16
  %153 = icmp ne i32 %152, 0
  br i1 %153, label %154, label %155

154:                                              ; preds = %146
  br label %167

155:                                              ; preds = %146
  %156 = load ptr, ptr %5, align 8, !tbaa !3
  %157 = getelementptr inbounds nuw %struct.mbedtls_psa_hmac_operation_t, ptr %156, i32 0, i32 1
  %158 = getelementptr inbounds [64 x i8], ptr %8, i64 0, i64 0
  %159 = call i32 @psa_hash_finish(ptr noundef %157, ptr noundef %158, i64 noundef 64, ptr noundef %10)
  store i32 %159, ptr %12, align 4, !tbaa !16
  %160 = load i32, ptr %12, align 4, !tbaa !16
  %161 = icmp ne i32 %160, 0
  br i1 %161, label %162, label %163

162:                                              ; preds = %155
  br label %167

163:                                              ; preds = %155
  %164 = load ptr, ptr %6, align 8, !tbaa !12
  %165 = getelementptr inbounds [64 x i8], ptr %8, i64 0, i64 0
  %166 = load i64, ptr %7, align 8, !tbaa !14
  call void @llvm.memcpy.p0.p0.i64(ptr align 1 %164, ptr align 16 %165, i64 %166, i1 false)
  br label %167

167:                                              ; preds = %163, %162, %154, %145, %134
  %168 = getelementptr inbounds [64 x i8], ptr %8, i64 0, i64 0
  %169 = load i64, ptr %10, align 8, !tbaa !14
  call void @mbedtls_platform_zeroize(ptr noundef %168, i64 noundef %169)
  %170 = load i32, ptr %12, align 4, !tbaa !16
  store i32 %170, ptr %4, align 4
  store i32 1, ptr %13, align 4
  br label %171

171:                                              ; preds = %167, %125
  call void @llvm.lifetime.end.p0(i64 4, ptr %12) #6
  call void @llvm.lifetime.end.p0(i64 8, ptr %11) #6
  call void @llvm.lifetime.end.p0(i64 8, ptr %10) #6
  call void @llvm.lifetime.end.p0(i64 4, ptr %9) #6
  call void @llvm.lifetime.end.p0(i64 64, ptr %8) #6
  %172 = load i32, ptr %4, align 4
  ret i32 %172
}

; Function Attrs: nounwind uwtable
define internal i32 @psa_mac_finish_internal(ptr noundef %0, ptr noundef %1, i64 noundef %2) #0 {
  %4 = alloca i32, align 4
  %5 = alloca ptr, align 8
  %6 = alloca ptr, align 8
  %7 = alloca i64, align 8
  %8 = alloca [16 x i8], align 16
  %9 = alloca i32, align 4
  store ptr %0, ptr %5, align 8, !tbaa !3
  store ptr %1, ptr %6, align 8, !tbaa !12
  store i64 %2, ptr %7, align 8, !tbaa !14
  %10 = load ptr, ptr %5, align 8, !tbaa !3
  %11 = getelementptr inbounds nuw %struct.mbedtls_psa_mac_operation_t, ptr %10, i32 0, i32 0
  %12 = load i32, ptr %11, align 8, !tbaa !7
  %13 = and i32 %12, -4161537
  %14 = icmp eq i32 %13, 62915072
  br i1 %14, label %15, label %30

15:                                               ; preds = %3
  call void @llvm.lifetime.start.p0(i64 16, ptr %8) #6
  call void @llvm.lifetime.start.p0(i64 4, ptr %9) #6
  %16 = load ptr, ptr %5, align 8, !tbaa !3
  %17 = getelementptr inbounds nuw %struct.mbedtls_psa_mac_operation_t, ptr %16, i32 0, i32 1
  %18 = getelementptr inbounds [16 x i8], ptr %8, i64 0, i64 0
  %19 = call i32 @mbedtls_cipher_cmac_finish(ptr noundef %17, ptr noundef %18)
  store i32 %19, ptr %9, align 4, !tbaa !16
  %20 = load i32, ptr %9, align 4, !tbaa !16
  %21 = icmp eq i32 %20, 0
  br i1 %21, label %22, label %26

22:                                               ; preds = %15
  %23 = load ptr, ptr %6, align 8, !tbaa !12
  %24 = getelementptr inbounds [16 x i8], ptr %8, i64 0, i64 0
  %25 = load i64, ptr %7, align 8, !tbaa !14
  call void @llvm.memcpy.p0.p0.i64(ptr align 1 %23, ptr align 16 %24, i64 %25, i1 false)
  br label %26

26:                                               ; preds = %22, %15
  %27 = getelementptr inbounds [16 x i8], ptr %8, i64 0, i64 0
  call void @mbedtls_platform_zeroize(ptr noundef %27, i64 noundef 16)
  %28 = load i32, ptr %9, align 4, !tbaa !16
  %29 = call i32 @mbedtls_to_psa_error(i32 noundef %28)
  store i32 %29, ptr %4, align 4
  call void @llvm.lifetime.end.p0(i64 4, ptr %9) #6
  call void @llvm.lifetime.end.p0(i64 16, ptr %8) #6
  br label %43

30:                                               ; preds = %3
  %31 = load ptr, ptr %5, align 8, !tbaa !3
  %32 = getelementptr inbounds nuw %struct.mbedtls_psa_mac_operation_t, ptr %31, i32 0, i32 0
  %33 = load i32, ptr %32, align 8, !tbaa !7
  %34 = and i32 %33, 2143289344
  %35 = icmp eq i32 %34, 58720256
  br i1 %35, label %36, label %42

36:                                               ; preds = %30
  %37 = load ptr, ptr %5, align 8, !tbaa !3
  %38 = getelementptr inbounds nuw %struct.mbedtls_psa_mac_operation_t, ptr %37, i32 0, i32 1
  %39 = load ptr, ptr %6, align 8, !tbaa !12
  %40 = load i64, ptr %7, align 8, !tbaa !14
  %41 = call i32 @psa_hmac_finish_internal(ptr noundef %38, ptr noundef %39, i64 noundef %40)
  store i32 %41, ptr %4, align 4
  br label %43

42:                                               ; preds = %30
  store i32 -137, ptr %4, align 4
  br label %43

43:                                               ; preds = %42, %36, %26
  %44 = load i32, ptr %4, align 4
  ret i32 %44
}