; Function Attrs: nounwind uwtable
define internal fastcc i32 @psa_mac_finish_internal(ptr noundef %0, ptr noundef writeonly captures(none) %1, i64 noundef %2) unnamed_addr #0 {
  %4 = alloca [64 x i8], align 16
  %5 = alloca i64, align 8
  %6 = alloca [16 x i8], align 16
  %7 = load i32, ptr %0, align 8, !tbaa !3
  %8 = and i32 %7, -4161537
  %9 = icmp eq i32 %8, 62915072
  br i1 %9, label %10, label %17

10:                                               ; preds = %3
  call void @llvm.lifetime.start.p0(i64 16, ptr nonnull %6) #5
  %11 = getelementptr inbounds nuw i8, ptr %0, i64 8
  %12 = call i32 @mbedtls_cipher_cmac_finish(ptr noundef nonnull %11, ptr noundef nonnull %6) #5
  %13 = icmp eq i32 %12, 0
  br i1 %13, label %14, label %15

14:                                               ; preds = %10
  call void @llvm.memcpy.p0.p0.i64(ptr align 1 %1, ptr nonnull align 16 %6, i64 %2, i1 false)
  br label %15

15:                                               ; preds = %14, %10
  call void @mbedtls_platform_zeroize(ptr noundef nonnull %6, i64 noundef 16) #5
  %16 = call i32 @mbedtls_to_psa_error(i32 noundef %12) #5
  call void @llvm.lifetime.end.p0(i64 16, ptr nonnull %6) #5
  br label %46

17:                                               ; preds = %3
  %18 = and i32 %7, 2143289344
  %19 = icmp eq i32 %18, 58720256
  br i1 %19, label %20, label %46

20:                                               ; preds = %17
  %21 = getelementptr inbounds nuw i8, ptr %0, i64 8
  call void @llvm.lifetime.start.p0(i64 64, ptr nonnull %4) #5
  %22 = load i32, ptr %21, align 8, !tbaa !15
  call void @llvm.lifetime.start.p0(i64 8, ptr nonnull %5) #5
  store i64 0, ptr %5, align 8, !tbaa !13
  %trunc.i = trunc i32 %22 to i8
  %switch.tableidx = add i8 %trunc.i, -3
  %23 = icmp ult i8 %switch.tableidx, 16
  br i1 %23, label %switch.hole_check, label %24

24:                                               ; preds = %switch.hole_check, %20
  %25 = and i32 %22, 255
  %26 = icmp eq i32 %25, 19
  %27 = select i1 %26, i64 72, i64 0
  br label %29

switch.hole_check:                                ; preds = %20
  %switch.maskindex = zext nneg i8 %switch.tableidx to i16
  %switch.shifted = lshr i16 -6169, %switch.maskindex
  %switch.lobit = trunc i16 %switch.shifted to i1
  br i1 %switch.lobit, label %switch.lookup, label %24

switch.lookup:                                    ; preds = %switch.hole_check
  %28 = zext nneg i8 %switch.tableidx to i64
  %switch.gep = getelementptr inbounds nuw [16 x i64], ptr @switch.table.psa_mac_finish_internal, i64 0, i64 %28
  %switch.load = load i64, ptr %switch.gep, align 8
  br label %29

29:                                               ; preds = %switch.lookup, %24
  %30 = phi i64 [ %27, %24 ], [ %switch.load, %switch.lookup ]
  %31 = getelementptr inbounds nuw i8, ptr %0, i64 16
  %32 = call i32 @psa_hash_finish(ptr noundef nonnull %31, ptr noundef nonnull %4, i64 noundef 64, ptr noundef nonnull %5) #5
  %.not.i = icmp eq i32 %32, 0
  br i1 %.not.i, label %33, label %psa_hmac_finish_internal.exit

33:                                               ; preds = %29
  %34 = call i32 @psa_hash_setup(ptr noundef nonnull %31, i32 noundef %22) #5
  %.not38.i = icmp eq i32 %34, 0
  br i1 %.not38.i, label %35, label %44

35:                                               ; preds = %33
  %36 = getelementptr inbounds nuw i8, ptr %0, i64 248
  %37 = call i32 @psa_hash_update(ptr noundef nonnull %31, ptr noundef nonnull %36, i64 noundef %30) #5
  %.not39.i = icmp eq i32 %37, 0
  br i1 %.not39.i, label %38, label %44

38:                                               ; preds = %35
  %39 = load i64, ptr %5, align 8, !tbaa !13
  %40 = call i32 @psa_hash_update(ptr noundef nonnull %31, ptr noundef nonnull %4, i64 noundef %39) #5
  %.not40.i = icmp eq i32 %40, 0
  br i1 %.not40.i, label %41, label %44

41:                                               ; preds = %38
  %42 = call i32 @psa_hash_finish(ptr noundef nonnull %31, ptr noundef nonnull %4, i64 noundef 64, ptr noundef nonnull %5) #5
  %.not41.i = icmp eq i32 %42, 0
  br i1 %.not41.i, label %43, label %44

43:                                               ; preds = %41
  call void @llvm.memcpy.p0.p0.i64(ptr align 1 %1, ptr nonnull align 16 %4, i64 %2, i1 false)
  br label %44

44:                                               ; preds = %43, %41, %38, %35, %33
  %.0.i = phi i32 [ %34, %33 ], [ %37, %35 ], [ %40, %38 ], [ %42, %41 ], [ 0, %43 ]
  %45 = load i64, ptr %5, align 8, !tbaa !13
  call void @mbedtls_platform_zeroize(ptr noundef nonnull %4, i64 noundef %45) #5
  br label %psa_hmac_finish_internal.exit

psa_hmac_finish_internal.exit:                    ; preds = %29, %44
  %.031.i = phi i32 [ %.0.i, %44 ], [ %32, %29 ]
  call void @llvm.lifetime.end.p0(i64 8, ptr nonnull %5) #5
  call void @llvm.lifetime.end.p0(i64 64, ptr nonnull %4) #5
  br label %46

46:                                               ; preds = %17, %psa_hmac_finish_internal.exit, %15
  %.0 = phi i32 [ %16, %15 ], [ %.031.i, %psa_hmac_finish_internal.exit ], [ -137, %17 ]
  ret i32 %.0
}